target datalayout = "e-m:e-p270:32:32-p271:32:32-p272:64:64-i64:64-i128:128-f80:128-n8:16:32:64-S128"
target triple = "x86_64-pc-linux-gnu"

%"class.icu_77::StringPiece" = type <{ ptr, i32, [4 x i8] }>
%"class.icu_77::double_conversion::StringToDoubleConverter" = type <{ i32, [4 x i8], double, double, ptr, ptr, i16, [6 x i8] }>

@.str.20 = private unnamed_addr constant [1 x i8] zeroinitializer, align 1
@_ZN6icu_7711StringPiece4nposE = external constant i32, align 4

; Function Attrs: mustprogress nounwind uwtable
define linkonce_odr void @_ZN6icu_7717double_conversion23StringToDoubleConverterC2EiddPKcS3_t(ptr noundef nonnull align 8 dereferenceable(42) %0, i32 noundef %1, double noundef %2, double noundef %3, ptr noundef %4, ptr noundef %5, i16 noundef zeroext %6) unnamed_addr #0 comdat align 2 {
  %8 = alloca ptr, align 8
  %9 = alloca i32, align 4
  %10 = alloca double, align 8
  %11 = alloca double, align 8
  %12 = alloca ptr, align 8
  %13 = alloca ptr, align 8
  %14 = alloca i16, align 2
  store ptr %0, ptr %8, align 8, !tbaa !121
  store i32 %1, ptr %9, align 4, !tbaa !14
  store double %2, ptr %10, align 8, !tbaa !32
  store double %3, ptr %11, align 8, !tbaa !32
  store ptr %4, ptr %12, align 8, !tbaa !17
  store ptr %5, ptr %13, align 8, !tbaa !17
  store i16 %6, ptr %14, align 2, !tbaa !123
  %15 = load ptr, ptr %8, align 8
  %16 = getelementptr inbounds nuw %"class.icu_77::double_conversion::StringToDoubleConverter", ptr %15, i32 0, i32 0
  %17 = load i32, ptr %9, align 4, !tbaa !14
  store i32 %17, ptr %16, align 8, !tbaa !125
  %18 = getelementptr inbounds nuw %"class.icu_77::double_conversion::StringToDoubleConverter", ptr %15, i32 0, i32 2
  %19 = load double, ptr %10, align 8, !tbaa !32
  store double %19, ptr %18, align 8, !tbaa !127
  %20 = getelementptr inbounds nuw %"class.icu_77::double_conversion::StringToDoubleConverter", ptr %15, i32 0, i32 3
  %21 = load double, ptr %11, align 8, !tbaa !32
  store double %21, ptr %20, align 8, !tbaa !128
  %22 = getelementptr inbounds nuw %"class.icu_77::double_conversion::StringToDoubleConverter", ptr %15, i32 0, i32 4
  %23 = load ptr, ptr %12, align 8, !tbaa !17
  store ptr %23, ptr %22, align 8, !tbaa !129
  %24 = getelementptr inbounds nuw %"class.icu_77::double_conversion::StringToDoubleConverter", ptr %15, i32 0, i32 5
  %25 = load ptr, ptr %13, align 8, !tbaa !17
  store ptr %25, ptr %24, align 8, !tbaa !130
  %26 = getelementptr inbounds nuw %"class.icu_77::double_conversion::StringToDoubleConverter", ptr %15, i32 0, i32 6
  %27 = load i16, ptr %14, align 2, !tbaa !123
  store i16 %27, ptr %26, align 8, !tbaa !131
  ret void
}

; Function Attrs: mustprogress uwtable
define internal noundef double @_ZN6icu_775units12_GLOBAL__N_111strToDoubleENS_11StringPieceER10UErrorCode(ptr %0, i32 %1, ptr noundef nonnull align 4 dereferenceable(4) %2) #1 {
  %4 = alloca %"class.icu_77::StringPiece", align 8
  %5 = alloca ptr, align 8
  %6 = alloca %"class.icu_77::double_conversion::StringToDoubleConverter", align 8
  %7 = alloca i32, align 4
  %8 = alloca double, align 8
  %9 = getelementptr inbounds nuw { ptr, i32 }, ptr %4, i32 0, i32 0
  store ptr %0, ptr %9, align 8
  %10 = getelementptr inbounds nuw { ptr, i32 }, ptr %4, i32 0, i32 1
  store i32 %1, ptr %10, align 8
  store ptr %2, ptr %5, align 8, !tbaa !22
  call void @llvm.lifetime.start.p0(i64 48, ptr %6) #12
  call void @_ZN6icu_7717double_conversion23StringToDoubleConverterC2EiddPKcS3_t(ptr noundef nonnull align 8 dereferenceable(42) %6, i32 noundef 0, double noundef 0.000000e+00, double noundef 0.000000e+00, ptr noundef @.str.20, ptr noundef @.str.20, i16 noundef zeroext 0)
  call void @llvm.lifetime.start.p0(i64 4, ptr %7) #12
  call void @llvm.lifetime.start.p0(i64 8, ptr %8) #12
  %11 = call noundef ptr @_ZNK6icu_7711StringPiece4dataEv(ptr noundef nonnull align 8 dereferenceable(12) %4)
  %12 = call noundef i32 @_ZNK6icu_7711StringPiece6lengthEv(ptr noundef nonnull align 8 dereferenceable(12) %4)
  %13 = call noundef double @_ZNK6icu_7717double_conversion23StringToDoubleConverter14StringToDoubleEPKciPi(ptr noundef nonnull align 8 dereferenceable(42) %6, ptr noundef %11, i32 noundef %12, ptr noundef %7)
  store double %13, ptr %8, align 8, !tbaa !32
  %14 = load i32, ptr %7, align 4, !tbaa !14
  %15 = call noundef i32 @_ZNK6icu_7711StringPiece6lengthEv(ptr noundef nonnull align 8 dereferenceable(12) %4)
  %16 = icmp ne i32 %14, %15
  br i1 %16, label %17, label %19

17:                                               ; preds = %3
  %18 = load ptr, ptr %5, align 8, !tbaa !22
  store i32 3, ptr %18, align 4, !tbaa !15
  br label %19

19:                                               ; preds = %17, %3
  %20 = load double, ptr %8, align 8, !tbaa !32
  call void @llvm.lifetime.end.p0(i64 8, ptr %8) #12
  call void @llvm.lifetime.end.p0(i64 4, ptr %7) #12
  call void @llvm.lifetime.end.p0(i64 48, ptr %6) #12
  ret double %20
}

; Function Attrs: mustprogress uwtable
define linkonce_odr { ptr, i32 } @_ZNK6icu_7711StringPiece6substrEii(ptr noundef nonnull align 8 dereferenceable(12) %0, i32 noundef %1, i32 noundef %2) #1 comdat align 2 {
  %4 = alloca %"class.icu_77::StringPiece", align 8
  %5 = alloca ptr, align 8
  %6 = alloca i32, align 4
  %7 = alloca i32, align 4
  store ptr %0, ptr %5, align 8, !tbaa !132
  store i32 %1, ptr %6, align 4, !tbaa !14
  store i32 %2, ptr %7, align 4, !tbaa !14
  %8 = load ptr, ptr %5, align 8
  %9 = load i32, ptr %6, align 4, !tbaa !14
  %10 = load i32, ptr %7, align 4, !tbaa !14
  call void @_ZN6icu_7711StringPieceC1ERKS0_ii(ptr noundef nonnull align 8 dereferenceable(12) %4, ptr noundef nonnull align 8 dereferenceable(12) %8, i32 noundef %9, i32 noundef %10)
  %11 = load { ptr, i32 }, ptr %4, align 8
  ret { ptr, i32 } %11
}

; Function Attrs: mustprogress nounwind uwtable
define linkonce_odr noundef ptr @_ZNK6icu_7711StringPiece4dataEv(ptr noundef nonnull align 8 dereferenceable(12) %0) #0 comdat align 2 {
  %2 = alloca ptr, align 8
  store ptr %0, ptr %2, align 8, !tbaa !132
  %3 = load ptr, ptr %2, align 8
  %4 = getelementptr inbounds nuw %"class.icu_77::StringPiece", ptr %3, i32 0, i32 0
  %5 = load ptr, ptr %4, align 8, !tbaa !134
  ret ptr %5
}

; Function Attrs: mustprogress nounwind uwtable
define linkonce_odr noundef i32 @_ZNK6icu_7711StringPiece6lengthEv(ptr noundef nonnull align 8 dereferenceable(12) %0) #0 comdat align 2 {
  %2 = alloca ptr, align 8
  store ptr %0, ptr %2, align 8, !tbaa !132
  %3 = load ptr, ptr %2, align 8
  %4 = getelementptr inbounds nuw %"class.icu_77::StringPiece", ptr %3, i32 0, i32 1
  %5 = load i32, ptr %4, align 8, !tbaa !136
  ret i32 %5
}

; Function Attrs: mustprogress nounwind uwtable
define linkonce_odr void @_ZN6icu_7711StringPieceC2Ev(ptr noundef nonnull align 8 dereferenceable(12) %0) unnamed_addr #0 comdat align 2 {
  %2 = alloca ptr, align 8
  store ptr %0, ptr %2, align 8, !tbaa !132
  %3 = load ptr, ptr %2, align 8
  %4 = getelementptr inbounds nuw %"class.icu_77::StringPiece", ptr %3, i32 0, i32 0
  store ptr null, ptr %4, align 8, !tbaa !134
  %5 = getelementptr inbounds nuw %"class.icu_77::StringPiece", ptr %3, i32 0, i32 1
  store i32 0, ptr %5, align 8, !tbaa !136
  ret void
}

; Function Attrs: mustprogress uwtable
define internal void @_ZN6icu_775units12_GLOBAL__N_116addFactorElementERNS0_6FactorENS_11StringPieceENS0_6SignumER10UErrorCode(ptr noundef nonnull align 8 dereferenceable(88) %0, ptr %1, i32 %2, i32 noundef %3, ptr noundef nonnull align 4 dereferenceable(4) %4) #1 {
  %6 = alloca %"class.icu_77::StringPiece", align 8
  %7 = alloca ptr, align 8
  %8 = alloca i32, align 4
  %9 = alloca ptr, align 8
  %10 = alloca %"class.icu_77::StringPiece", align 8
  %11 = alloca %"class.icu_77::StringPiece", align 8
  %12 = alloca i32, align 4
  %13 = alloca i32, align 4
  %14 = alloca i32, align 4
  %15 = alloca i32, align 4
  %16 = alloca i32, align 4
  %17 = alloca %"class.icu_77::StringPiece", align 8
  %18 = alloca { ptr, i32 }, align 8
  %19 = alloca %"class.icu_77::StringPiece", align 8
  %20 = alloca { ptr, i32 }, align 8
  %21 = alloca %"class.icu_77::StringPiece", align 8
  %22 = alloca %"class.icu_77::StringPiece", align 8
  %23 = getelementptr inbounds nuw { ptr, i32 }, ptr %6, i32 0, i32 0
  store ptr %1, ptr %23, align 8
  %24 = getelementptr inbounds nuw { ptr, i32 }, ptr %6, i32 0, i32 1
  store i32 %2, ptr %24, align 8
  store ptr %0, ptr %7, align 8, !tbaa !23
  store i32 %3, ptr %8, align 4, !tbaa !43
  store ptr %4, ptr %9, align 8, !tbaa !22
  call void @llvm.lifetime.start.p0(i64 16, ptr %10) #12
  call void @_ZN6icu_7711StringPieceC2Ev(ptr noundef nonnull align 8 dereferenceable(12) %10)
  call void @llvm.lifetime.start.p0(i64 16, ptr %11) #12
  call void @_ZN6icu_7711StringPieceC2Ev(ptr noundef nonnull align 8 dereferenceable(12) %11)
  call void @llvm.lifetime.start.p0(i64 4, ptr %12) #12
  store i32 1, ptr %12, align 4, !tbaa !14
  call void @llvm.lifetime.start.p0(i64 4, ptr %13) #12
  store i32 -1, ptr %13, align 4, !tbaa !14
  call void @llvm.lifetime.start.p0(i64 4, ptr %14) #12
  store i32 0, ptr %14, align 4, !tbaa !14
  call void @llvm.lifetime.start.p0(i64 4, ptr %15) #12
  %25 = call noundef i32 @_ZNK6icu_7711StringPiece6lengthEv(ptr noundef nonnull align 8 dereferenceable(12) %6)
  store i32 %25, ptr %15, align 4, !tbaa !14
  br label %26

26:                                               ; preds = %42, %5
  %27 = load i32, ptr %14, align 4, !tbaa !14
  %28 = load i32, ptr %15, align 4, !tbaa !14
  %29 = icmp slt i32 %27, %28
  br i1 %29, label %31, label %30

30:                                               ; preds = %26
  store i32 2, ptr %16, align 4
  br label %45

31:                                               ; preds = %26
  %32 = call noundef ptr @_ZNK6icu_7711StringPiece4dataEv(ptr noundef nonnull align 8 dereferenceable(12) %6)
  %33 = load i32, ptr %14, align 4, !tbaa !14
  %34 = sext i32 %33 to i64
  %35 = getelementptr inbounds i8, ptr %32, i64 %34
  %36 = load i8, ptr %35, align 1, !tbaa !108
  %37 = sext i8 %36 to i32
  %38 = icmp eq i32 %37, 94
  br i1 %38, label %39, label %41

39:                                               ; preds = %31
  %40 = load i32, ptr %14, align 4, !tbaa !14
  store i32 %40, ptr %13, align 4, !tbaa !14
  store i32 2, ptr %16, align 4
  br label %45

41:                                               ; preds = %31
  br label %42

42:                                               ; preds = %41
  %43 = load i32, ptr %14, align 4, !tbaa !14
  %44 = add nsw i32 %43, 1
  store i32 %44, ptr %14, align 4, !tbaa !14
  br label %26, !llvm.loop !168

45:                                               ; preds = %39, %30
  call void @llvm.lifetime.end.p0(i64 4, ptr %15) #12
  call void @llvm.lifetime.end.p0(i64 4, ptr %14) #12
  br label %46

46:                                               ; preds = %45
  %47 = load i32, ptr %13, align 4, !tbaa !14
  %48 = icmp sgt i32 %47, -1
  br i1 %48, label %49, label %63

49:                                               ; preds = %46
  call void @llvm.lifetime.start.p0(i64 16, ptr %17) #12
  %50 = load i32, ptr %13, align 4, !tbaa !14
  %51 = call { ptr, i32 } @_ZNK6icu_7711StringPiece6substrEii(ptr noundef nonnull align 8 dereferenceable(12) %6, i32 noundef 0, i32 noundef %50)
  store { ptr, i32 } %51, ptr %18, align 8
  call void @llvm.memcpy.p0.p0.i64(ptr align 8 %17, ptr align 8 %18, i64 12, i1 false)
  call void @llvm.memcpy.p0.p0.i64(ptr align 8 %10, ptr align 8 %17, i64 12, i1 false)
  call void @llvm.lifetime.end.p0(i64 16, ptr %17) #12
  call void @llvm.lifetime.start.p0(i64 16, ptr %19) #12
  %52 = load i32, ptr %13, align 4, !tbaa !14
  %53 = add nsw i32 %52, 1
  %54 = load i32, ptr @_ZN6icu_7711StringPiece4nposE, align 4, !tbaa !14
  %55 = call { ptr, i32 } @_ZNK6icu_7711StringPiece6substrEii(ptr noundef nonnull align 8 dereferenceable(12) %6, i32 noundef %53, i32 noundef %54)
  store { ptr, i32 } %55, ptr %20, align 8
  call void @llvm.memcpy.p0.p0.i64(ptr align 8 %19, ptr align 8 %20, i64 12, i1 false)
  call void @llvm.memcpy.p0.p0.i64(ptr align 8 %11, ptr align 8 %19, i64 12, i1 false)
  call void @llvm.lifetime.end.p0(i64 16, ptr %19) #12
  call void @llvm.memcpy.p0.p0.i64(ptr align 8 %21, ptr align 8 %11, i64 16, i1 false)
  %56 = load ptr, ptr %9, align 8, !tbaa !22
  %57 = getelementptr inbounds nuw { ptr, i32 }, ptr %21, i32 0, i32 0
  %58 = load ptr, ptr %57, align 8
  %59 = getelementptr inbounds nuw { ptr, i32 }, ptr %21, i32 0, i32 1
  %60 = load i32, ptr %59, align 8
  %61 = call noundef double @_ZN6icu_775units12_GLOBAL__N_111strToDoubleENS_11StringPieceER10UErrorCode(ptr %58, i32 %60, ptr noundef nonnull align 4 dereferenceable(4) %56)
  %62 = fptosi double %61 to i32
  store i32 %62, ptr %12, align 4, !tbaa !14
  br label %64

63:                                               ; preds = %46
  call void @llvm.memcpy.p0.p0.i64(ptr align 8 %10, ptr align 8 %6, i64 12, i1 false)
  br label %64

64:                                               ; preds = %63, %49
  call void @llvm.memcpy.p0.p0.i64(ptr align 8 %22, ptr align 8 %10, i64 16, i1 false)
  %65 = load i32, ptr %12, align 4, !tbaa !14
  %66 = load i32, ptr %8, align 4, !tbaa !43
  %67 = load ptr, ptr %7, align 8, !tbaa !23
  %68 = load ptr, ptr %9, align 8, !tbaa !22
  %69 = getelementptr inbounds nuw { ptr, i32 }, ptr %22, i32 0, i32 0
  %70 = load ptr, ptr %69, align 8
  %71 = getelementptr inbounds nuw { ptr, i32 }, ptr %22, i32 0, i32 1
  %72 = load i32, ptr %71, align 8
  call void @_ZN6icu_775units23addSingleFactorConstantENS_11StringPieceEiNS0_6SignumERNS0_6FactorER10UErrorCode(ptr %70, i32 %72, i32 noundef %65, i32 noundef %66, ptr noundef nonnull align 8 dereferenceable(88) %67, ptr noundef nonnull align 4 dereferenceable(4) %68)
  call void @llvm.lifetime.end.p0(i64 4, ptr %13) #12
  call void @llvm.lifetime.end.p0(i64 4, ptr %12) #12
  call void @llvm.lifetime.end.p0(i64 16, ptr %11) #12
  call void @llvm.lifetime.end.p0(i64 16, ptr %10) #12
  ret void
}