; Function Attrs: mustprogress uwtable
define internal fastcc void @_ZN6icu_775units12_GLOBAL__N_116addFactorElementERNS0_6FactorENS_11StringPieceENS0_6SignumER10UErrorCode(ptr noundef nonnull align 8 captures(none) dereferenceable(88) %0, ptr %1, i32 %2, i32 noundef range(i32 -1, 2) %3, ptr noundef nonnull writeonly align 4 captures(none) dereferenceable(4) %4) unnamed_addr #1 {
  %6 = alloca %"class.icu_77::double_conversion::StringToDoubleConverter", align 8
  %7 = alloca i32, align 4
  %8 = alloca %"class.icu_77::StringPiece", align 8
  %9 = alloca %"class.icu_77::StringPiece", align 8
  %10 = alloca %"class.icu_77::StringPiece", align 8
  store ptr %1, ptr %10, align 8
  %11 = getelementptr inbounds nuw i8, ptr %10, i64 8
  store i32 %2, ptr %11, align 8
  %12 = icmp sgt i32 %2, 0
  br i1 %12, label %.lr.ph.preheader, label %.thread

.lr.ph.preheader:                                 ; preds = %5
  %wide.trip.count = zext nneg i32 %2 to i64
  br label %.lr.ph

.lr.ph:                                           ; preds = %.lr.ph.preheader, %16
  %indvars.iv = phi i64 [ 0, %.lr.ph.preheader ], [ %indvars.iv.next, %16 ]
  %13 = getelementptr inbounds nuw i8, ptr %1, i64 %indvars.iv
  %14 = load i8, ptr %13, align 1, !tbaa !48
  %15 = icmp eq i8 %14, 94
  br i1 %15, label %17, label %16

16:                                               ; preds = %.lr.ph
  %indvars.iv.next = add nuw nsw i64 %indvars.iv, 1
  %exitcond.not = icmp eq i64 %indvars.iv.next, %wide.trip.count
  br i1 %exitcond.not, label %.thread, label %.lr.ph, !llvm.loop !117

17:                                               ; preds = %.lr.ph
  %18 = trunc nuw nsw i64 %indvars.iv to i32
  call void @llvm.lifetime.start.p0(i64 16, ptr nonnull %9)
  call void @_ZN6icu_7711StringPieceC1ERKS0_ii(ptr noundef nonnull align 8 dereferenceable(12) %9, ptr noundef nonnull align 8 dereferenceable(12) %10, i32 noundef 0, i32 noundef %18)
  %.fca.0.load.i = load ptr, ptr %9, align 8
  %.fca.1.gep.i = getelementptr inbounds nuw i8, ptr %9, i64 8
  %.fca.1.load.i = load i32, ptr %.fca.1.gep.i, align 8
  call void @llvm.lifetime.end.p0(i64 16, ptr nonnull %9)
  %19 = add nuw nsw i32 %18, 1
  %20 = load i32, ptr @_ZN6icu_7711StringPiece4nposE, align 4, !tbaa !12
  call void @llvm.lifetime.start.p0(i64 16, ptr nonnull %8)
  call void @_ZN6icu_7711StringPieceC1ERKS0_ii(ptr noundef nonnull align 8 dereferenceable(12) %8, ptr noundef nonnull align 8 dereferenceable(12) %10, i32 noundef %19, i32 noundef %20)
  %.fca.0.load.i27 = load ptr, ptr %8, align 8
  %.fca.1.gep.i29 = getelementptr inbounds nuw i8, ptr %8, i64 8
  %.fca.1.load.i30 = load i32, ptr %.fca.1.gep.i29, align 8
  call void @llvm.lifetime.end.p0(i64 16, ptr nonnull %8)
  call void @llvm.lifetime.start.p0(i64 48, ptr nonnull %6) #21
  store i32 0, ptr %6, align 8, !tbaa !27
  %21 = getelementptr inbounds nuw i8, ptr %6, i64 8
  %22 = getelementptr inbounds nuw i8, ptr %6, i64 24
  call void @llvm.memset.p0.i64(ptr noundef nonnull align 8 dereferenceable(16) %21, i8 0, i64 16, i1 false)
  store ptr @.str.20, ptr %22, align 8, !tbaa !30
  %23 = getelementptr inbounds nuw i8, ptr %6, i64 32
  store ptr @.str.20, ptr %23, align 8, !tbaa !31
  %24 = getelementptr inbounds nuw i8, ptr %6, i64 40
  store i16 0, ptr %24, align 8, !tbaa !32
  call void @llvm.lifetime.start.p0(i64 4, ptr nonnull %7) #21
  %25 = call noundef double @_ZNK6icu_7717double_conversion23StringToDoubleConverter14StringToDoubleEPKciPi(ptr noundef nonnull align 8 dereferenceable(42) %6, ptr noundef %.fca.0.load.i27, i32 noundef %.fca.1.load.i30, ptr noundef nonnull %7)
  %26 = load i32, ptr %7, align 4, !tbaa !12
  %.not.i = icmp eq i32 %26, %.fca.1.load.i30
  br i1 %.not.i, label %_ZN6icu_775units12_GLOBAL__N_111strToDoubleENS_11StringPieceER10UErrorCode.exit, label %27

27:                                               ; preds = %17
  store i32 3, ptr %4, align 4, !tbaa !13
  br label %_ZN6icu_775units12_GLOBAL__N_111strToDoubleENS_11StringPieceER10UErrorCode.exit

_ZN6icu_775units12_GLOBAL__N_111strToDoubleENS_11StringPieceER10UErrorCode.exit: ; preds = %17, %27
  call void @llvm.lifetime.end.p0(i64 4, ptr nonnull %7) #21
  call void @llvm.lifetime.end.p0(i64 48, ptr nonnull %6) #21
  %28 = fptosi double %25 to i32
  br label %.thread

.thread:                                          ; preds = %16, %5, %_ZN6icu_775units12_GLOBAL__N_111strToDoubleENS_11StringPieceER10UErrorCode.exit
  %.sroa.032.0 = phi ptr [ %.fca.0.load.i, %_ZN6icu_775units12_GLOBAL__N_111strToDoubleENS_11StringPieceER10UErrorCode.exit ], [ %1, %5 ], [ %1, %16 ]
  %.sroa.633.0 = phi i32 [ %.fca.1.load.i, %_ZN6icu_775units12_GLOBAL__N_111strToDoubleENS_11StringPieceER10UErrorCode.exit ], [ %2, %5 ], [ %2, %16 ]
  %.0 = phi i32 [ %28, %_ZN6icu_775units12_GLOBAL__N_111strToDoubleENS_11StringPieceER10UErrorCode.exit ], [ 1, %5 ], [ 1, %16 ]
  call void @_ZN6icu_775units23addSingleFactorConstantENS_11StringPieceEiNS0_6SignumERNS0_6FactorER10UErrorCode(ptr %.sroa.032.0, i32 %.sroa.633.0, i32 noundef %.0, i32 noundef %3, ptr noundef nonnull align 8 dereferenceable(88) %0, ptr noundef nonnull align 4 dereferenceable(4) %4)
  ret void
}